target datalayout = "e-m:e-p270:32:32-p271:32:32-p272:64:64-i64:64-i128:128-f80:128-n8:16:32:64-S128"
target triple = "x86_64-pc-linux-gnu"

%struct.ct_test_fixture = type { ptr, i64, ptr, ptr, ptr, ptr, i32, i32, ptr, i64, ptr, ptr, ptr, i32 }

@certs_dir = internal global ptr null, align 8
@.str.4 = private unnamed_addr constant [28 x i8] c"test_no_scts_in_certificate\00", align 1
@.str.14 = private unnamed_addr constant [9 x i8] c"leaf.pem\00", align 1
@.str.15 = private unnamed_addr constant [15 x i8] c"subinterCA.pem\00", align 1
@.str.16 = private unnamed_addr constant [26 x i8] c"../openssl/test/ct_test.c\00", align 1

; Function Attrs: nounwind uwtable
define internal void @tear_down(ptr noundef %0) #0 {
  %2 = alloca ptr, align 8
  store ptr %0, ptr %2, align 8, !tbaa !9
  %3 = load ptr, ptr %2, align 8, !tbaa !9
  %4 = icmp ne ptr %3, null
  br i1 %4, label %5, label %12

5:                                                ; preds = %1
  %6 = load ptr, ptr %2, align 8, !tbaa !9
  %7 = getelementptr inbounds nuw %struct.ct_test_fixture, ptr %6, i32 0, i32 2
  %8 = load ptr, ptr %7, align 8, !tbaa !37
  call void @CTLOG_STORE_free(ptr noundef %8)
  %9 = load ptr, ptr %2, align 8, !tbaa !9
  %10 = getelementptr inbounds nuw %struct.ct_test_fixture, ptr %9, i32 0, i32 10
  %11 = load ptr, ptr %10, align 8, !tbaa !31
  call void @SCT_LIST_free(ptr noundef %11)
  br label %12

12:                                               ; preds = %5, %1
  %13 = load ptr, ptr %2, align 8, !tbaa !9
  call void @CRYPTO_free(ptr noundef %13, ptr noundef @.str.16, i32 noundef 88)
  ret void
}

; Function Attrs: nounwind uwtable
define internal i32 @test_no_scts_in_certificate() #0 {
  %1 = alloca i32, align 4
  %2 = alloca ptr, align 8
  %3 = alloca i32, align 4
  %4 = alloca i32, align 4
  call void @llvm.lifetime.start.p0(i64 8, ptr %2) #9
  %5 = call ptr @set_up(ptr noundef @.str.4)
  store ptr %5, ptr %2, align 8, !tbaa !9
  call void @llvm.lifetime.start.p0(i64 4, ptr %3) #9
  store i32 0, ptr %3, align 4, !tbaa !11
  %6 = load ptr, ptr %2, align 8, !tbaa !9
  %7 = icmp eq ptr %6, null
  br i1 %7, label %8, label %9

8:                                                ; preds = %0
  store i32 0, ptr %1, align 4
  store i32 1, ptr %4, align 4
  br label %27

9:                                                ; preds = %0
  %10 = load ptr, ptr @certs_dir, align 8, !tbaa !4
  %11 = load ptr, ptr %2, align 8, !tbaa !9
  %12 = getelementptr inbounds nuw %struct.ct_test_fixture, ptr %11, i32 0, i32 3
  store ptr %10, ptr %12, align 8, !tbaa !13
  %13 = load ptr, ptr %2, align 8, !tbaa !9
  %14 = getelementptr inbounds nuw %struct.ct_test_fixture, ptr %13, i32 0, i32 4
  store ptr @.str.14, ptr %14, align 8, !tbaa !18
  %15 = load ptr, ptr %2, align 8, !tbaa !9
  %16 = getelementptr inbounds nuw %struct.ct_test_fixture, ptr %15, i32 0, i32 5
  store ptr @.str.15, ptr %16, align 8, !tbaa !19
  %17 = load ptr, ptr %2, align 8, !tbaa !9
  %18 = getelementptr inbounds nuw %struct.ct_test_fixture, ptr %17, i32 0, i32 6
  store i32 0, ptr %18, align 8, !tbaa !20
  %19 = load ptr, ptr %2, align 8, !tbaa !9
  %20 = icmp ne ptr %19, null
  br i1 %20, label %21, label %25

21:                                               ; preds = %9
  %22 = load ptr, ptr %2, align 8, !tbaa !9
  %23 = call i32 @execute_cert_test(ptr noundef %22)
  store i32 %23, ptr %3, align 4, !tbaa !11
  %24 = load ptr, ptr %2, align 8, !tbaa !9
  call void @tear_down(ptr noundef %24)
  br label %25

25:                                               ; preds = %21, %9
  %26 = load i32, ptr %3, align 4, !tbaa !11
  store i32 %26, ptr %1, align 4
  store i32 1, ptr %4, align 4
  br label %27

27:                                               ; preds = %25, %8
  call void @llvm.lifetime.end.p0(i64 4, ptr %3) #9
  call void @llvm.lifetime.end.p0(i64 8, ptr %2) #9
  %28 = load i32, ptr %1, align 4
  ret i32 %28
}