; Function Attrs: nounwind uwtable
define internal range(i32 0, 2) i32 @test_no_scts_in_certificate() #0 {
  %1 = tail call fastcc ptr @set_up(ptr noundef nonnull @.str.4)
  %2 = icmp eq ptr %1, null
  br i1 %2, label %14, label %3

3:                                                ; preds = %0
  %4 = load ptr, ptr @certs_dir, align 8, !tbaa !4
  %5 = getelementptr inbounds nuw i8, ptr %1, i64 24
  store ptr %4, ptr %5, align 8, !tbaa !9
  %6 = getelementptr inbounds nuw i8, ptr %1, i64 32
  store ptr @.str.14, ptr %6, align 8, !tbaa !15
  %7 = getelementptr inbounds nuw i8, ptr %1, i64 40
  store ptr @.str.15, ptr %7, align 8, !tbaa !16
  %8 = getelementptr inbounds nuw i8, ptr %1, i64 48
  store i32 0, ptr %8, align 8, !tbaa !17
  %9 = tail call fastcc i32 @execute_cert_test(ptr noundef %1)
  %10 = getelementptr inbounds nuw i8, ptr %1, i64 16
  %11 = load ptr, ptr %10, align 8, !tbaa !18
  tail call void @CTLOG_STORE_free(ptr noundef %11) #8
  %12 = getelementptr inbounds nuw i8, ptr %1, i64 72
  %13 = load ptr, ptr %12, align 8, !tbaa !19
  tail call void @SCT_LIST_free(ptr noundef %13) #8
  tail call void @CRYPTO_free(ptr noundef nonnull %1, ptr noundef nonnull @.str.16, i32 noundef 88) #8
  br label %14

14:                                               ; preds = %0, %3
  %.09 = phi i32 [ %9, %3 ], [ 0, %0 ]
  ret i32 %.09
}